target datalayout = "e-m:e-p270:32:32-p271:32:32-p272:64:64-i64:64-i128:128-f80:128-n8:16:32:64-S128"
target triple = "x86_64-unknown-linux-gnu"

%"class.std::set.0" = type { %"class.std::_Rb_tree.1" }
%"class.std::_Rb_tree.1" = type { %"struct.std::_Rb_tree<QuantLib::Observer *, QuantLib::Observer *, std::_Identity<QuantLib::Observer *>, std::less<QuantLib::Observer *>>::_Rb_tree_impl" }
%"struct.std::_Rb_tree<QuantLib::Observer *, QuantLib::Observer *, std::_Identity<QuantLib::Observer *>, std::less<QuantLib::Observer *>>::_Rb_tree_impl" = type { [8 x i8], %"struct.std::_Rb_tree_header" }
%"struct.std::_Rb_tree_header" = type { %"struct.std::_Rb_tree_node_base", i64 }
%"struct.std::_Rb_tree_node_base" = type { i32, ptr, ptr, ptr }
%"class.std::set" = type { %"class.std::_Rb_tree" }
%"class.std::_Rb_tree" = type { %"struct.std::_Rb_tree<boost::shared_ptr<QuantLib::Observable>, boost::shared_ptr<QuantLib::Observable>, std::_Identity<boost::shared_ptr<QuantLib::Observable>>, std::less<boost::shared_ptr<QuantLib::Observable>>>::_Rb_tree_impl" }
%"struct.std::_Rb_tree<boost::shared_ptr<QuantLib::Observable>, boost::shared_ptr<QuantLib::Observable>, std::_Identity<boost::shared_ptr<QuantLib::Observable>>, std::less<boost::shared_ptr<QuantLib::Observable>>>::_Rb_tree_impl" = type { [8 x i8], %"struct.std::_Rb_tree_header" }
%"class.boost::detail::shared_count" = type { ptr }
%"class.QuantLib::Observable" = type { ptr, %"class.std::set.0" }
%"class.QuantLib::Observer" = type { ptr, %"class.std::set" }
%"class.QuantLib::VarianceSwap" = type { %"class.QuantLib::Instrument.base", i32, double, double, %"class.QuantLib::Date", %"class.QuantLib::Date", double, %"class.QuantLib::Observable", %"class.QuantLib::Observer" }
%"class.QuantLib::Instrument.base" = type { %"class.QuantLib::LazyObject.base", double, double, %"class.QuantLib::Date", %"class.std::map", %"class.boost::shared_ptr.19" }
%"class.QuantLib::LazyObject.base" = type <{ ptr, i8, i8, i8, i8 }>
%"class.std::map" = type { %"class.std::_Rb_tree.14" }
%"class.std::_Rb_tree.14" = type { %"struct.std::_Rb_tree<std::__cxx11::basic_string<char>, std::pair<const std::__cxx11::basic_string<char>, boost::any>, std::_Select1st<std::pair<const std::__cxx11::basic_string<char>, boost::any>>, std::less<std::__cxx11::basic_string<char>>>::_Rb_tree_impl" }
%"struct.std::_Rb_tree<std::__cxx11::basic_string<char>, std::pair<const std::__cxx11::basic_string<char>, boost::any>, std::_Select1st<std::pair<const std::__cxx11::basic_string<char>, boost::any>>, std::less<std::__cxx11::basic_string<char>>>::_Rb_tree_impl" = type { [8 x i8], %"struct.std::_Rb_tree_header" }
%"class.boost::shared_ptr.19" = type { ptr, %"class.boost::detail::shared_count" }
%"class.QuantLib::Date" = type { i64 }

; Function Attrs: mustprogress uwtable
define void @_ZN8QuantLib12VarianceSwapC2ENS_8Position4TypeEddRKNS_4DateES5_(ptr noundef nonnull align 8 dereferenceable(152) %this, ptr noundef %vtt, i32 noundef %position, double noundef %strike, double noundef %notional, ptr noundef nonnull align 8 dereferenceable(8) %startDate, ptr noundef nonnull align 8 dereferenceable(8) %maturityDate) unnamed_addr #2 align 2 {
entry:
  %this.addr = alloca ptr, align 8
  %vtt.addr = alloca ptr, align 8
  %position.addr = alloca i32, align 4
  %strike.addr = alloca double, align 8
  %notional.addr = alloca double, align 8
  %startDate.addr = alloca ptr, align 8
  %maturityDate.addr = alloca ptr, align 8
  store ptr %this, ptr %this.addr, align 8, !tbaa !3
  store ptr %vtt, ptr %vtt.addr, align 8, !tbaa !3
  store i32 %position, ptr %position.addr, align 4, !tbaa !24
  store double %strike, ptr %strike.addr, align 8, !tbaa !26
  store double %notional, ptr %notional.addr, align 8, !tbaa !26
  store ptr %startDate, ptr %startDate.addr, align 8, !tbaa !3
  store ptr %maturityDate, ptr %maturityDate.addr, align 8, !tbaa !3
  %this1 = load ptr, ptr %this.addr, align 8
  %vtt2 = load ptr, ptr %vtt.addr, align 8
  %0 = getelementptr inbounds ptr, ptr %vtt2, i64 1
  call void @_ZN8QuantLib10InstrumentC2Ev(ptr noundef nonnull align 8 dereferenceable(104) %this1, ptr noundef %0)
  %1 = load ptr, ptr %vtt2, align 8
  store ptr %1, ptr %this1, align 8, !tbaa !12
  %2 = getelementptr inbounds ptr, ptr %vtt2, i64 7
  %3 = load ptr, ptr %2, align 8
  %vtable = load ptr, ptr %this1, align 8, !tbaa !12
  %vbase.offset.ptr = getelementptr i8, ptr %vtable, i64 -24
  %vbase.offset = load i64, ptr %vbase.offset.ptr, align 8
  %add.ptr = getelementptr inbounds i8, ptr %this1, i64 %vbase.offset
  store ptr %3, ptr %add.ptr, align 8, !tbaa !12
  %4 = getelementptr inbounds ptr, ptr %vtt2, i64 8
  %5 = load ptr, ptr %4, align 8
  %vtable3 = load ptr, ptr %this1, align 8, !tbaa !12
  %vbase.offset.ptr4 = getelementptr i8, ptr %vtable3, i64 -32
  %vbase.offset5 = load i64, ptr %vbase.offset.ptr4, align 8
  %add.ptr6 = getelementptr inbounds i8, ptr %this1, i64 %vbase.offset5
  store ptr %5, ptr %add.ptr6, align 8, !tbaa !12
  %position_ = getelementptr inbounds nuw %"class.QuantLib::VarianceSwap", ptr %this1, i32 0, i32 1
  %6 = load i32, ptr %position.addr, align 4, !tbaa !24
  store i32 %6, ptr %position_, align 8, !tbaa !28
  %strike_ = getelementptr inbounds nuw %"class.QuantLib::VarianceSwap", ptr %this1, i32 0, i32 2
  %7 = load double, ptr %strike.addr, align 8, !tbaa !26
  store double %7, ptr %strike_, align 8, !tbaa !42
  %notional_ = getelementptr inbounds nuw %"class.QuantLib::VarianceSwap", ptr %this1, i32 0, i32 3
  %8 = load double, ptr %notional.addr, align 8, !tbaa !26
  store double %8, ptr %notional_, align 8, !tbaa !43
  %startDate_ = getelementptr inbounds nuw %"class.QuantLib::VarianceSwap", ptr %this1, i32 0, i32 4
  %9 = load ptr, ptr %startDate.addr, align 8, !tbaa !3
  call void @llvm.memcpy.p0.p0.i64(ptr align 8 %startDate_, ptr align 8 %9, i64 8, i1 false), !tbaa.struct !44
  %maturityDate_ = getelementptr inbounds nuw %"class.QuantLib::VarianceSwap", ptr %this1, i32 0, i32 5
  %10 = load ptr, ptr %maturityDate.addr, align 8, !tbaa !3
  call void @llvm.memcpy.p0.p0.i64(ptr align 8 %maturityDate_, ptr align 8 %10, i64 8, i1 false), !tbaa.struct !44
  ret void
}