; Function Attrs: mustprogress uwtable
define void @_ZN8QuantLib12VarianceSwapC2ENS_8Position4TypeEddRKNS_4DateES5_(ptr noundef nonnull align 8 dereferenceable(152) %this, ptr noundef %vtt, i32 noundef %position, double noundef %strike, double noundef %notional, ptr nocapture noundef nonnull readonly align 8 dereferenceable(8) %startDate, ptr nocapture noundef nonnull readonly align 8 dereferenceable(8) %maturityDate) unnamed_addr #7 align 2 {
entry:
  %0 = getelementptr inbounds i8, ptr %vtt, i64 8
  tail call void @_ZN8QuantLib10InstrumentC2Ev(ptr noundef nonnull align 8 dereferenceable(104) %this, ptr noundef nonnull %0)
  %1 = load ptr, ptr %vtt, align 8
  store ptr %1, ptr %this, align 8, !tbaa !35
  %2 = getelementptr inbounds i8, ptr %vtt, i64 56
  %3 = load ptr, ptr %2, align 8
  %vbase.offset.ptr = getelementptr i8, ptr %1, i64 -24
  %vbase.offset = load i64, ptr %vbase.offset.ptr, align 8
  %add.ptr = getelementptr inbounds i8, ptr %this, i64 %vbase.offset
  store ptr %3, ptr %add.ptr, align 8, !tbaa !35
  %4 = getelementptr inbounds i8, ptr %vtt, i64 64
  %5 = load ptr, ptr %4, align 8
  %vtable3 = load ptr, ptr %this, align 8, !tbaa !35
  %vbase.offset.ptr4 = getelementptr i8, ptr %vtable3, i64 -32
  %vbase.offset5 = load i64, ptr %vbase.offset.ptr4, align 8
  %add.ptr6 = getelementptr inbounds i8, ptr %this, i64 %vbase.offset5
  store ptr %5, ptr %add.ptr6, align 8, !tbaa !35
  %position_ = getelementptr inbounds nuw i8, ptr %this, i64 104
  store i32 %position, ptr %position_, align 8, !tbaa !44
  %strike_ = getelementptr inbounds nuw i8, ptr %this, i64 112
  store double %strike, ptr %strike_, align 8, !tbaa !56
  %notional_ = getelementptr inbounds nuw i8, ptr %this, i64 120
  store double %notional, ptr %notional_, align 8, !tbaa !57
  %startDate_ = getelementptr inbounds nuw i8, ptr %this, i64 128
  %6 = load i64, ptr %startDate, align 8, !tbaa !30
  store i64 %6, ptr %startDate_, align 8, !tbaa !30
  %maturityDate_ = getelementptr inbounds nuw i8, ptr %this, i64 136
  %7 = load i64, ptr %maturityDate, align 8, !tbaa !30
  store i64 %7, ptr %maturityDate_, align 8, !tbaa !30
  ret void
}